target datalayout = "e-m:e-p270:32:32-p271:32:32-p272:64:64-i64:64-i128:128-f80:128-n8:16:32:64-S128"
target triple = "x86_64-unknown-linux-gnu"

%"class.std::set.0" = type { %"class.std::_Rb_tree.1" }
%"class.std::_Rb_tree.1" = type { %"struct.std::_Rb_tree<QuantLib::Observer *, QuantLib::Observer *, std::_Identity<QuantLib::Observer *>, std::less<QuantLib::Observer *>>::_Rb_tree_impl" }
%"struct.std::_Rb_tree<QuantLib::Observer *, QuantLib::Observer *, std::_Identity<QuantLib::Observer *>, std::less<QuantLib::Observer *>>::_Rb_tree_impl" = type { [8 x i8], %"struct.std::_Rb_tree_header" }
%"struct.std::_Rb_tree_header" = type { %"struct.std::_Rb_tree_node_base", i64 }
%"struct.std::_Rb_tree_node_base" = type { i32, ptr, ptr, ptr }
%"class.std::set" = type { %"class.std::_Rb_tree" }
%"class.std::_Rb_tree" = type { %"struct.std::_Rb_tree<boost::shared_ptr<QuantLib::Observable>, boost::shared_ptr<QuantLib::Observable>, std::_Identity<boost::shared_ptr<QuantLib::Observable>>, std::less<boost::shared_ptr<QuantLib::Observable>>>::_Rb_tree_impl" }
%"struct.std::_Rb_tree<boost::shared_ptr<QuantLib::Observable>, boost::shared_ptr<QuantLib::Observable>, std::_Identity<boost::shared_ptr<QuantLib::Observable>>, std::less<boost::shared_ptr<QuantLib::Observable>>>::_Rb_tree_impl" = type { [8 x i8], %"struct.std::_Rb_tree_header" }
%"class.boost::detail::shared_count" = type { ptr }
%"class.QuantLib::Observable" = type { ptr, %"class.std::set.0" }
%"class.QuantLib::DayCounter" = type { %"class.boost::shared_ptr.16" }
%"class.boost::shared_ptr.16" = type { ptr, %"class.boost::detail::shared_count" }
%"class.QuantLib::Date" = type { i64 }
%"class.QuantLib::Gaussian1dSmileSection" = type { %"class.QuantLib::SmileSection.base", double, double, %"class.QuantLib::Date", %"class.boost::shared_ptr.34", %"class.boost::shared_ptr.35", %"class.boost::shared_ptr.36", %"class.boost::shared_ptr.24", %"class.QuantLib::Observable", %"class.QuantLib::Observer" }
%"class.QuantLib::SmileSection.base" = type { ptr, i8, %"class.QuantLib::Date", %"class.QuantLib::Date", %"class.QuantLib::DayCounter", double, i32, double }
%"class.boost::shared_ptr.34" = type { ptr, %"class.boost::detail::shared_count" }
%"class.boost::shared_ptr.35" = type { ptr, %"class.boost::detail::shared_count" }
%"class.boost::shared_ptr.36" = type { ptr, %"class.boost::detail::shared_count" }
%"class.boost::shared_ptr.24" = type { ptr, %"class.boost::detail::shared_count" }
%"class.QuantLib::Observer" = type { ptr, %"class.std::set" }
%"class.QuantLib::Null.65" = type { i8 }

; Function Attrs: mustprogress nounwind uwtable
define linkonce_odr noundef float @_ZNSt14numeric_limitsIfE3maxEv() #1 comdat align 2 {
entry:
  ret float 0x47EFFFFFE0000000
}

; Function Attrs: mustprogress nounwind uwtable
define linkonce_odr noundef float @_ZN8QuantLib6detail17FloatingPointNullILb1EE9nullValueEv() #1 comdat align 2 {
entry:
  %call = call noundef float @_ZNSt14numeric_limitsIfE3maxEv() #13
  ret float %call
}

; Function Attrs: mustprogress uwtable
define linkonce_odr noundef double @_ZNK8QuantLib4NullIdEcvdEv(ptr noundef nonnull align 1 dereferenceable(1) %this) #2 comdat align 2 {
entry:
  %this.addr = alloca ptr, align 8
  store ptr %this, ptr %this.addr, align 8, !tbaa !3
  %call = call noundef float @_ZN8QuantLib6detail17FloatingPointNullILb1EE9nullValueEv()
  %conv = fpext float %call to double
  ret double %conv
}

; Function Attrs: mustprogress uwtable
define noundef double @_ZNK8QuantLib22Gaussian1dSmileSection14volatilityImplEd(ptr noundef nonnull align 8 dereferenceable(160) %this, double noundef %strike) unnamed_addr #2 align 2 personality ptr @__gxx_personality_v0 {
entry:
  %this.addr = alloca ptr, align 8
  %strike.addr = alloca double, align 8
  %vol = alloca double, align 8
  %type = alloca i32, align 4
  %o = alloca double, align 8
  %exn.slot = alloca ptr, align 8
  %ehselector.slot = alloca i32, align 4
  %ref.tmp = alloca %"class.QuantLib::Null.65", align 1
  store ptr %this, ptr %this.addr, align 8, !tbaa !3
  store double %strike, ptr %strike.addr, align 8, !tbaa !33
  %this1 = load ptr, ptr %this.addr, align 8
  call void @llvm.lifetime.start.p0(i64 8, ptr %vol) #13
  store double 0.000000e+00, ptr %vol, align 8, !tbaa !33
  call void @llvm.lifetime.start.p0(i64 4, ptr %type) #13
  %0 = load double, ptr %strike.addr, align 8, !tbaa !33
  %atm_ = getelementptr inbounds nuw %"class.QuantLib::Gaussian1dSmileSection", ptr %this1, i32 0, i32 1
  %1 = load double, ptr %atm_, align 8, !tbaa !17
  %cmp = fcmp oge double %0, %1
  %cond = select i1 %cmp, i32 1, i32 -1
  store i32 %cond, ptr %type, align 4, !tbaa !52
  call void @llvm.lifetime.start.p0(i64 8, ptr %o) #13
  %2 = load double, ptr %strike.addr, align 8, !tbaa !33
  %3 = load i32, ptr %type, align 4, !tbaa !52
  %vtable = load ptr, ptr %this1, align 8, !tbaa !12
  %vfn = getelementptr inbounds ptr, ptr %vtable, i64 12
  %4 = load ptr, ptr %vfn, align 8
  %call = invoke noundef double %4(ptr noundef nonnull align 8 dereferenceable(160) %this1, double noundef %2, i32 noundef %3, double noundef 1.000000e+00)
          to label %invoke.cont unwind label %lpad

invoke.cont:                                      ; preds = %entry
  store double %call, ptr %o, align 8, !tbaa !33
  %5 = load i32, ptr %type, align 4, !tbaa !52
  %6 = load double, ptr %strike.addr, align 8, !tbaa !33
  %atm_2 = getelementptr inbounds nuw %"class.QuantLib::Gaussian1dSmileSection", ptr %this1, i32 0, i32 1
  %7 = load double, ptr %atm_2, align 8, !tbaa !17
  %8 = load double, ptr %o, align 8, !tbaa !33
  call void @llvm.lifetime.start.p0(i64 1, ptr %ref.tmp) #13
  %call5 = invoke noundef double @_ZNK8QuantLib4NullIdEcvdEv(ptr noundef nonnull align 1 dereferenceable(1) %ref.tmp)
          to label %invoke.cont4 unwind label %lpad3

invoke.cont4:                                     ; preds = %invoke.cont
  %call7 = invoke noundef double @_ZN8QuantLib25blackFormulaImpliedStdDevENS_6Option4TypeEdddddddj(i32 noundef %5, double noundef %6, double noundef %7, double noundef %8, double noundef 1.000000e+00, double noundef 0.000000e+00, double noundef %call5, double noundef 0x3EB0C6F7A0B5ED8D, i32 noundef 100)
          to label %invoke.cont6 unwind label %lpad3

invoke.cont6:                                     ; preds = %invoke.cont4
  %vtable8 = load ptr, ptr %this1, align 8, !tbaa !12
  %vfn9 = getelementptr inbounds ptr, ptr %vtable8, i64 10
  %9 = load ptr, ptr %vfn9, align 8
  %call11 = invoke noundef double %9(ptr noundef nonnull align 8 dereferenceable(72) %this1)
          to label %invoke.cont10 unwind label %lpad3

invoke.cont10:                                    ; preds = %invoke.cont6
  %call12 = call double @sqrt(double noundef %call11) #13, !tbaa !31
  %div = fdiv double %call7, %call12
  store double %div, ptr %vol, align 8, !tbaa !33
  call void @llvm.lifetime.end.p0(i64 1, ptr %ref.tmp) #13
  call void @llvm.lifetime.end.p0(i64 8, ptr %o) #13
  call void @llvm.lifetime.end.p0(i64 4, ptr %type) #13
  br label %try.cont

lpad:                                             ; preds = %entry
  %10 = landingpad { ptr, i32 }
          catch ptr null
  %11 = extractvalue { ptr, i32 } %10, 0
  store ptr %11, ptr %exn.slot, align 8
  %12 = extractvalue { ptr, i32 } %10, 1
  store i32 %12, ptr %ehselector.slot, align 4
  br label %ehcleanup

lpad3:                                            ; preds = %invoke.cont6, %invoke.cont4, %invoke.cont
  %13 = landingpad { ptr, i32 }
          catch ptr null
  %14 = extractvalue { ptr, i32 } %13, 0
  store ptr %14, ptr %exn.slot, align 8
  %15 = extractvalue { ptr, i32 } %13, 1
  store i32 %15, ptr %ehselector.slot, align 4
  call void @llvm.lifetime.end.p0(i64 1, ptr %ref.tmp) #13
  br label %ehcleanup

ehcleanup:                                        ; preds = %lpad3, %lpad
  call void @llvm.lifetime.end.p0(i64 8, ptr %o) #13
  call void @llvm.lifetime.end.p0(i64 4, ptr %type) #13
  br label %catch

catch:                                            ; preds = %ehcleanup
  %exn = load ptr, ptr %exn.slot, align 8
  %16 = call ptr @__cxa_begin_catch(ptr %exn) #13
  call void @__cxa_end_catch()
  br label %try.cont

try.cont:                                         ; preds = %catch, %invoke.cont10
  %17 = load double, ptr %vol, align 8, !tbaa !33
  call void @llvm.lifetime.end.p0(i64 8, ptr %vol) #13
  ret double %17
}