; Function Attrs: mustprogress uwtable
define noundef double @_ZNK8QuantLib22Gaussian1dSmileSection14volatilityImplEd(ptr noundef nonnull align 8 dereferenceable(160) %this, double noundef %strike) unnamed_addr #7 align 2 personality ptr @__gxx_personality_v0 {
entry:
  %atm_ = getelementptr inbounds nuw i8, ptr %this, i64 72
  %0 = load double, ptr %atm_, align 8, !tbaa !52
  %cmp = fcmp oge double %strike, %0
  %cond = select i1 %cmp, i32 1, i32 -1
  %vtable = load ptr, ptr %this, align 8, !tbaa !35
  %vfn = getelementptr inbounds i8, ptr %vtable, i64 96
  %1 = load ptr, ptr %vfn, align 8
  %call = invoke noundef double %1(ptr noundef nonnull align 8 dereferenceable(160) %this, double noundef %strike, i32 noundef %cond, double noundef 1.000000e+00)
          to label %invoke.cont4 unwind label %lpad

invoke.cont4:                                     ; preds = %entry
  %2 = load double, ptr %atm_, align 8, !tbaa !52
  %call7 = invoke noundef double @_ZN8QuantLib25blackFormulaImpliedStdDevENS_6Option4TypeEdddddddj(i32 noundef %cond, double noundef %strike, double noundef %2, double noundef %call, double noundef 1.000000e+00, double noundef 0.000000e+00, double noundef 0x47EFFFFFE0000000, double noundef 0x3EB0C6F7A0B5ED8D, i32 noundef 100)
          to label %invoke.cont6 unwind label %lpad3

invoke.cont6:                                     ; preds = %invoke.cont4
  %vtable8 = load ptr, ptr %this, align 8, !tbaa !35
  %vfn9 = getelementptr inbounds i8, ptr %vtable8, i64 80
  %3 = load ptr, ptr %vfn9, align 8
  %call11 = invoke noundef double %3(ptr noundef nonnull align 8 dereferenceable(72) %this)
          to label %invoke.cont10 unwind label %lpad3

invoke.cont10:                                    ; preds = %invoke.cont6
  %call12 = tail call double @sqrt(double noundef %call11) #26, !tbaa !61
  %div = fdiv double %call7, %call12
  br label %try.cont

lpad:                                             ; preds = %entry
  %4 = landingpad { ptr, i32 }
          catch ptr null
  br label %ehcleanup

lpad3:                                            ; preds = %invoke.cont6, %invoke.cont4
  %5 = landingpad { ptr, i32 }
          catch ptr null
  br label %ehcleanup

ehcleanup:                                        ; preds = %lpad3, %lpad
  %.pn = phi { ptr, i32 } [ %5, %lpad3 ], [ %4, %lpad ]
  %exn.slot.0 = extractvalue { ptr, i32 } %.pn, 0
  %6 = tail call ptr @__cxa_begin_catch(ptr %exn.slot.0) #26
  tail call void @__cxa_end_catch()
  br label %try.cont

try.cont:                                         ; preds = %ehcleanup, %invoke.cont10
  %vol.0 = phi double [ %div, %invoke.cont10 ], [ 0.000000e+00, %ehcleanup ]
  ret double %vol.0
}